; Function Attrs: nofree norecurse nosync nounwind memory(argmem: readwrite) uwtable
define hidden void @cfl_predict_lbd_32x32_c(ptr nocapture noundef readonly %0, ptr nocapture noundef %1, i32 noundef %2, i32 noundef %3) #5 {
  %5 = sext i32 %2 to i64
  br label %.preheader.us.i

.preheader.us.i:                                  ; preds = %._crit_edge.us.i, %4
  %.01521.us.i = phi i32 [ %29, %._crit_edge.us.i ], [ 0, %4 ]
  %.01620.us.i = phi ptr [ %28, %._crit_edge.us.i ], [ %0, %4 ]
  %.01719.us.i = phi ptr [ %27, %._crit_edge.us.i ], [ %1, %4 ]
  br label %6

6:                                                ; preds = %get_scaled_luma_q0.exit.us.i, %.preheader.us.i
  %indvars.iv.i = phi i64 [ 0, %.preheader.us.i ], [ %indvars.iv.next.i, %get_scaled_luma_q0.exit.us.i ]
  %7 = getelementptr inbounds i16, ptr %.01620.us.i, i64 %indvars.iv.i
  %8 = load i16, ptr %7, align 2
  %9 = sext i16 %8 to i32
  %10 = mul nsw i32 %3, %9
  %11 = icmp slt i32 %10, 0
  br i1 %11, label %15, label %12

12:                                               ; preds = %6
  %13 = add nuw nsw i32 %10, 32
  %14 = lshr i32 %13, 6
  br label %get_scaled_luma_q0.exit.us.i

15:                                               ; preds = %6
  %16 = sub i32 32, %10
  %17 = lshr i32 %16, 6
  %18 = sub nsw i32 0, %17
  br label %get_scaled_luma_q0.exit.us.i

get_scaled_luma_q0.exit.us.i:                     ; preds = %15, %12
  %19 = phi i32 [ %18, %15 ], [ %14, %12 ]
  %20 = getelementptr inbounds i8, ptr %.01719.us.i, i64 %indvars.iv.i
  %21 = load i8, ptr %20, align 1
  %22 = zext i8 %21 to i32
  %23 = add nsw i32 %19, %22
  %24 = tail call i32 @llvm.smax.i32(i32 %23, i32 0)
  %25 = tail call i32 @llvm.umin.i32(i32 %24, i32 255)
  %26 = trunc nuw i32 %25 to i8
  store i8 %26, ptr %20, align 1
  %indvars.iv.next.i = add nuw nsw i64 %indvars.iv.i, 1
  %exitcond.not.i = icmp eq i64 %indvars.iv.next.i, 32
  br i1 %exitcond.not.i, label %._crit_edge.us.i, label %6, !llvm.loop !11

._crit_edge.us.i:                                 ; preds = %get_scaled_luma_q0.exit.us.i
  %27 = getelementptr inbounds i8, ptr %.01719.us.i, i64 %5
  %28 = getelementptr inbounds i8, ptr %.01620.us.i, i64 64
  %29 = add nuw nsw i32 %.01521.us.i, 1
  %exitcond25.not.i = icmp eq i32 %29, 32
  br i1 %exitcond25.not.i, label %cfl_predict_lbd_c.exit, label %.preheader.us.i, !llvm.loop !12

cfl_predict_lbd_c.exit:                           ; preds = %._crit_edge.us.i
  ret void
}